target datalayout = "e-m:e-p270:32:32-p271:32:32-p272:64:64-i64:64-i128:128-f80:128-n8:16:32:64-S128"
target triple = "x86_64-pc-linux-gnu"

%"class.cv::Mat" = type { i32, i32, i32, i32, ptr, ptr, ptr, ptr, ptr, ptr, %"struct.cv::MatSize", %"struct.cv::MatStep" }
%"struct.cv::MatSize" = type { ptr }
%"struct.cv::MatStep" = type { ptr, [2 x i64] }
%"class.cv::Point_" = type { i32, i32 }

; Function Attrs: inlinehint mustprogress nounwind uwtable
define linkonce_odr hidden noundef i32 @_ZNK2cv3Mat8channelsEv(ptr noundef nonnull align 8 dereferenceable(96) %0) #7 comdat align 2 {
  %2 = alloca ptr, align 8
  store ptr %0, ptr %2, align 8, !tbaa !29
  %3 = load ptr, ptr %2, align 8
  %4 = getelementptr inbounds nuw %"class.cv::Mat", ptr %3, i32 0, i32 0
  %5 = load i32, ptr %4, align 8, !tbaa !60
  %6 = and i32 %5, 4088
  %7 = ashr i32 %6, 3
  %8 = add nsw i32 %7, 1
  ret i32 %8
}

; Function Attrs: inlinehint mustprogress nounwind uwtable
define linkonce_odr hidden noundef nonnull align 1 dereferenceable(1) ptr @_ZN2cv3Mat2atIaEERT_ii(ptr noundef nonnull align 8 dereferenceable(96) %0, i32 noundef %1, i32 noundef %2) #7 comdat align 2 {
  %4 = alloca ptr, align 8
  %5 = alloca i32, align 4
  %6 = alloca i32, align 4
  store ptr %0, ptr %4, align 8, !tbaa !29
  store i32 %1, ptr %5, align 4, !tbaa !8
  store i32 %2, ptr %6, align 4, !tbaa !8
  %7 = load ptr, ptr %4, align 8
  %8 = getelementptr inbounds nuw %"class.cv::Mat", ptr %7, i32 0, i32 4
  %9 = load ptr, ptr %8, align 8, !tbaa !104
  %10 = getelementptr inbounds nuw %"class.cv::Mat", ptr %7, i32 0, i32 11
  %11 = getelementptr inbounds nuw %"struct.cv::MatStep", ptr %10, i32 0, i32 0
  %12 = load ptr, ptr %11, align 8, !tbaa !105
  %13 = getelementptr inbounds i64, ptr %12, i64 0
  %14 = load i64, ptr %13, align 8, !tbaa !37
  %15 = load i32, ptr %5, align 4, !tbaa !8
  %16 = sext i32 %15 to i64
  %17 = mul i64 %14, %16
  %18 = getelementptr inbounds nuw i8, ptr %9, i64 %17
  %19 = load i32, ptr %6, align 4, !tbaa !8
  %20 = sext i32 %19 to i64
  %21 = getelementptr inbounds i8, ptr %18, i64 %20
  ret ptr %21
}

; Function Attrs: inlinehint mustprogress nounwind uwtable
define linkonce_odr hidden void @_ZN2cv6Point_IiEC2Eii(ptr noundef nonnull align 4 dereferenceable(8) %0, i32 noundef %1, i32 noundef %2) unnamed_addr #7 comdat align 2 {
  %4 = alloca ptr, align 8
  %5 = alloca i32, align 4
  %6 = alloca i32, align 4
  store ptr %0, ptr %4, align 8, !tbaa !106
  store i32 %1, ptr %5, align 4, !tbaa !8
  store i32 %2, ptr %6, align 4, !tbaa !8
  %7 = load ptr, ptr %4, align 8
  %8 = getelementptr inbounds nuw %"class.cv::Point_", ptr %7, i32 0, i32 0
  %9 = load i32, ptr %5, align 4, !tbaa !8
  store i32 %9, ptr %8, align 4, !tbaa !113
  %10 = getelementptr inbounds nuw %"class.cv::Point_", ptr %7, i32 0, i32 1
  %11 = load i32, ptr %6, align 4, !tbaa !8
  store i32 %11, ptr %10, align 4, !tbaa !111
  ret void
}

; Function Attrs: mustprogress uwtable
define internal noundef zeroext i1 @_ZN2cvL17checkIntegerRangeILi1EEEbNS_3MatERNS_6Point_IiEEii(ptr noundef %0, ptr noundef nonnull align 4 dereferenceable(8) %1, i32 noundef %2, i32 noundef %3) #4 personality ptr @__gxx_personality_v0 {
  %5 = alloca i1, align 1
  %6 = alloca ptr, align 8
  %7 = alloca ptr, align 8
  %8 = alloca i32, align 4
  %9 = alloca i32, align 4
  %10 = alloca %"class.cv::Point_", align 4
  %11 = alloca %"class.cv::Mat", align 8
  %12 = alloca i32, align 4
  %13 = alloca i32, align 4
  %14 = alloca i32, align 4
  %15 = alloca i8, align 1
  %16 = alloca ptr, align 8
  %17 = alloca i32, align 4
  store ptr %0, ptr %6, align 8, !tbaa !29
  store ptr %1, ptr %7, align 8, !tbaa !106
  store i32 %2, ptr %8, align 4, !tbaa !8
  store i32 %3, ptr %9, align 4, !tbaa !8
  %18 = load i32, ptr %8, align 4, !tbaa !8
  %19 = icmp slt i32 %18, -128
  br i1 %19, label %20, label %24

20:                                               ; preds = %4
  %21 = load i32, ptr %9, align 4, !tbaa !8
  %22 = icmp sgt i32 %21, 127
  br i1 %22, label %23, label %24

23:                                               ; preds = %20
  store i1 true, ptr %5, align 1
  br label %96

24:                                               ; preds = %20, %4
  %25 = load i32, ptr %8, align 4, !tbaa !8
  %26 = icmp sgt i32 %25, 127
  br i1 %26, label %34, label %27

27:                                               ; preds = %24
  %28 = load i32, ptr %9, align 4, !tbaa !8
  %29 = icmp slt i32 %28, -128
  br i1 %29, label %34, label %30

30:                                               ; preds = %27
  %31 = load i32, ptr %9, align 4, !tbaa !8
  %32 = load i32, ptr %8, align 4, !tbaa !8
  %33 = icmp slt i32 %31, %32
  br i1 %33, label %34, label %36

34:                                               ; preds = %30, %27, %24
  call void @llvm.lifetime.start.p0(i64 8, ptr %10) #3
  call void @_ZN2cv6Point_IiEC2Eii(ptr noundef nonnull align 4 dereferenceable(8) %10, i32 noundef 0, i32 noundef 0)
  %35 = load ptr, ptr %7, align 8, !tbaa !106
  call void @llvm.memcpy.p0.p0.i64(ptr align 4 %35, ptr align 4 %10, i64 8, i1 false), !tbaa.struct !108
  call void @llvm.lifetime.end.p0(i64 8, ptr %10) #3
  store i1 false, ptr %5, align 1
  br label %96

36:                                               ; preds = %30
  br label %37

37:                                               ; preds = %36
  call void @llvm.lifetime.start.p0(i64 96, ptr %11) #3
  call void @_ZNK2cv3Mat7reshapeEii(ptr dead_on_unwind writable sret(%"class.cv::Mat") align 8 %11, ptr noundef nonnull align 8 dereferenceable(96) %0, i32 noundef 1, i32 noundef 0)
  call void @llvm.lifetime.start.p0(i64 4, ptr %12) #3
  store i32 0, ptr %12, align 4, !tbaa !8
  br label %38

38:                                               ; preds = %89, %37
  %39 = load i32, ptr %12, align 4, !tbaa !8
  %40 = getelementptr inbounds nuw %"class.cv::Mat", ptr %11, i32 0, i32 2
  %41 = load i32, ptr %40, align 8, !tbaa !109
  %42 = icmp slt i32 %39, %41
  br i1 %42, label %44, label %43

43:                                               ; preds = %38
  store i32 2, ptr %13, align 4
  br label %92

44:                                               ; preds = %38
  call void @llvm.lifetime.start.p0(i64 4, ptr %14) #3
  store i32 0, ptr %14, align 4, !tbaa !8
  br label %45

45:                                               ; preds = %83, %44
  %46 = load i32, ptr %14, align 4, !tbaa !8
  %47 = getelementptr inbounds nuw %"class.cv::Mat", ptr %11, i32 0, i32 3
  %48 = load i32, ptr %47, align 4, !tbaa !110
  %49 = icmp slt i32 %46, %48
  br i1 %49, label %51, label %50

50:                                               ; preds = %45
  store i32 5, ptr %13, align 4
  br label %86

51:                                               ; preds = %45
  call void @llvm.lifetime.start.p0(i64 1, ptr %15) #3
  %52 = load i32, ptr %12, align 4, !tbaa !8
  %53 = load i32, ptr %14, align 4, !tbaa !8
  %54 = invoke noundef nonnull align 1 dereferenceable(1) ptr @_ZN2cv3Mat2atIaEERT_ii(ptr noundef nonnull align 8 dereferenceable(96) %11, i32 noundef %52, i32 noundef %53)
          to label %55 unwind label %75

55:                                               ; preds = %51
  %56 = load i8, ptr %54, align 1, !tbaa !7
  store i8 %56, ptr %15, align 1, !tbaa !7
  %57 = load i8, ptr %15, align 1, !tbaa !7
  %58 = sext i8 %57 to i32
  %59 = load i32, ptr %8, align 4, !tbaa !8
  %60 = icmp slt i32 %58, %59
  br i1 %60, label %66, label %61

61:                                               ; preds = %55
  %62 = load i8, ptr %15, align 1, !tbaa !7
  %63 = sext i8 %62 to i32
  %64 = load i32, ptr %9, align 4, !tbaa !8
  %65 = icmp sgt i32 %63, %64
  br i1 %65, label %66, label %79

66:                                               ; preds = %61, %55
  %67 = load i32, ptr %12, align 4, !tbaa !8
  %68 = load ptr, ptr %7, align 8, !tbaa !106
  %69 = getelementptr inbounds nuw %"class.cv::Point_", ptr %68, i32 0, i32 1
  store i32 %67, ptr %69, align 4, !tbaa !111
  %70 = load i32, ptr %14, align 4, !tbaa !8
  %71 = call noundef i32 @_ZNK2cv3Mat8channelsEv(ptr noundef nonnull align 8 dereferenceable(96) %0)
  %72 = sdiv i32 %70, %71
  %73 = load ptr, ptr %7, align 8, !tbaa !106
  %74 = getelementptr inbounds nuw %"class.cv::Point_", ptr %73, i32 0, i32 0
  store i32 %72, ptr %74, align 4, !tbaa !113
  store i1 false, ptr %5, align 1
  store i32 1, ptr %13, align 4
  br label %80

75:                                               ; preds = %51
  %76 = landingpad { ptr, i32 }
          cleanup
  %77 = extractvalue { ptr, i32 } %76, 0
  store ptr %77, ptr %16, align 8
  %78 = extractvalue { ptr, i32 } %76, 1
  store i32 %78, ptr %17, align 4
  call void @llvm.lifetime.end.p0(i64 1, ptr %15) #3
  call void @llvm.lifetime.end.p0(i64 4, ptr %14) #3
  call void @llvm.lifetime.end.p0(i64 4, ptr %12) #3
  call void @_ZN2cv3MatD1Ev(ptr noundef nonnull align 8 dereferenceable(96) %11) #3
  call void @llvm.lifetime.end.p0(i64 96, ptr %11) #3
  br label %98

79:                                               ; preds = %61
  store i32 0, ptr %13, align 4
  br label %80

80:                                               ; preds = %79, %66
  call void @llvm.lifetime.end.p0(i64 1, ptr %15) #3
  %81 = load i32, ptr %13, align 4
  switch i32 %81, label %86 [
    i32 0, label %82
  ]

82:                                               ; preds = %80
  br label %83

83:                                               ; preds = %82
  %84 = load i32, ptr %14, align 4, !tbaa !8
  %85 = add nsw i32 %84, 1
  store i32 %85, ptr %14, align 4, !tbaa !8
  br label %45, !llvm.loop !116

86:                                               ; preds = %80, %50
  call void @llvm.lifetime.end.p0(i64 4, ptr %14) #3
  %87 = load i32, ptr %13, align 4
  switch i32 %87, label %92 [
    i32 5, label %88
  ]

88:                                               ; preds = %86
  br label %89

89:                                               ; preds = %88
  %90 = load i32, ptr %12, align 4, !tbaa !8
  %91 = add nsw i32 %90, 1
  store i32 %91, ptr %12, align 4, !tbaa !8
  br label %38, !llvm.loop !117

92:                                               ; preds = %86, %43
  call void @llvm.lifetime.end.p0(i64 4, ptr %12) #3
  %93 = load i32, ptr %13, align 4
  switch i32 %93, label %95 [
    i32 2, label %94
  ]

94:                                               ; preds = %92
  store i1 true, ptr %5, align 1
  store i32 1, ptr %13, align 4
  br label %95

95:                                               ; preds = %94, %92
  call void @_ZN2cv3MatD1Ev(ptr noundef nonnull align 8 dereferenceable(96) %11) #3
  call void @llvm.lifetime.end.p0(i64 96, ptr %11) #3
  br label %96

96:                                               ; preds = %95, %34, %23
  %97 = load i1, ptr %5, align 1
  ret i1 %97

98:                                               ; preds = %75
  %99 = load ptr, ptr %16, align 8
  %100 = load i32, ptr %17, align 4
  %101 = insertvalue { ptr, i32 } poison, ptr %99, 0
  %102 = insertvalue { ptr, i32 } %101, i32 %100, 1
  resume { ptr, i32 } %102
}